; ModuleID = '22/760.c'
source_filename = "22/760.c"
target datalayout = "e-m:e-p270:32:32-p271:32:32-p272:64:64-i64:64-f80:128-n8:16:32:64-S128"
target triple = "x86_64-pc-linux-gnu"

@.str = private unnamed_addr constant [3 x i8] c"%d\00", align 1
@.str.1 = private unnamed_addr constant [3 x i8] c"%c\00", align 1
@.str.2 = private unnamed_addr constant [3 x i8] c"No\00", align 1

; Function Attrs: noinline nounwind uwtable
define dso_local i32 @main() #0 {
  %1 = alloca i32, align 4
  %2 = alloca [301 x i32], align 16
  %3 = alloca i8, align 1
  %4 = alloca i32, align 4
  %5 = alloca i32, align 4
  %6 = alloca i32, align 4
  %7 = alloca i32, align 4
  store i32 0, i32* %1, align 4
  store i32 1, i32* %4, align 4
  store i32 0, i32* %7, align 4
  br label %8

8:                                                ; preds = %0, %18
  %9 = load i32, i32* %4, align 4
  %10 = sext i32 %9 to i64
  %11 = getelementptr inbounds [301 x i32], [301 x i32]* %2, i64 0, i64 %10
  %12 = call i32 (i8*, ...) @__isoc99_scanf(i8* getelementptr inbounds ([3 x i8], [3 x i8]* @.str, i64 0, i64 0), i32* %11)
  %13 = call i32 (i8*, ...) @__isoc99_scanf(i8* getelementptr inbounds ([3 x i8], [3 x i8]* @.str.1, i64 0, i64 0), i8* %3)
  %14 = load i8, i8* %3, align 1
  %15 = sext i8 %14 to i32
  %16 = icmp ne i32 %15, 44
  br i1 %16, label %17, label %18

17:                                               ; preds = %8
  br label %21

18:                                               ; preds = %8
  %19 = load i32, i32* %4, align 4
  %20 = add nsw i32 %19, 1
  store i32 %20, i32* %4, align 4
  br label %8

21:                                               ; preds = %17
  %22 = load i32, i32* %4, align 4
  %23 = icmp eq i32 %22, 1
  br i1 %23, label %24, label %26

24:                                               ; preds = %21
  %25 = call i32 (i8*, ...) @printf(i8* getelementptr inbounds ([3 x i8], [3 x i8]* @.str.2, i64 0, i64 0))
  store i32 1, i32* %7, align 4
  br label %53

26:                                               ; preds = %21
  %27 = load i32, i32* %4, align 4
  store i32 %27, i32* %5, align 4
  br label %28

28:                                               ; preds = %49, %26
  %29 = load i32, i32* %5, align 4
  %30 = icmp sge i32 %29, 2
  br i1 %30, label %31, label %52

31:                                               ; preds = %28
  %32 = load i32, i32* %5, align 4
  %33 = sext i32 %32 to i64
  %34 = getelementptr inbounds [301 x i32], [301 x i32]* %2, i64 0, i64 %33
  %35 = load i32, i32* %34, align 4
  %36 = load i32, i32* %5, align 4
  %37 = sub nsw i32 %36, 1
  %38 = sext i32 %37 to i64
  %39 = getelementptr inbounds [301 x i32], [301 x i32]* %2, i64 0, i64 %38
  %40 = load i32, i32* %39, align 4
  %41 = icmp ne i32 %35, %40
  br i1 %41, label %42, label %43

42:                                               ; preds = %31
  br label %52

43:                                               ; preds = %31
  %44 = load i32, i32* %5, align 4
  %45 = icmp eq i32 %44, 2
  br i1 %45, label %46, label %48

46:                                               ; preds = %43
  store i32 1, i32* %7, align 4
  %47 = call i32 (i8*, ...) @printf(i8* getelementptr inbounds ([3 x i8], [3 x i8]* @.str.2, i64 0, i64 0))
  br label %48

48:                                               ; preds = %46, %43
  br label %49

49:                                               ; preds = %48
  %50 = load i32, i32* %5, align 4
  %51 = add nsw i32 %50, -1
  store i32 %51, i32* %5, align 4
  br label %28

52:                                               ; preds = %42, %28
  br label %53

53:                                               ; preds = %52, %24
  %54 = load i32, i32* %7, align 4
  %55 = icmp ne i32 %54, 1
  br i1 %55, label %56, label %153

56:                                               ; preds = %53
  %57 = load i32, i32* %4, align 4
  store i32 %57, i32* %5, align 4
  br label %58

58:                                               ; preds = %91, %56
  %59 = load i32, i32* %5, align 4
  %60 = icmp sge i32 %59, 2
  br i1 %60, label %61, label %94

61:                                               ; preds = %58
  %62 = load i32, i32* %5, align 4
  %63 = sext i32 %62 to i64
  %64 = getelementptr inbounds [301 x i32], [301 x i32]* %2, i64 0, i64 %63
  %65 = load i32, i32* %64, align 4
  %66 = load i32, i32* %5, align 4
  %67 = sub nsw i32 %66, 1
  %68 = sext i32 %67 to i64
  %69 = getelementptr inbounds [301 x i32], [301 x i32]* %2, i64 0, i64 %68
  %70 = load i32, i32* %69, align 4
  %71 = icmp uge i32 %65, %70
  br i1 %71, label %72, label %90

72:                                               ; preds = %61
  %73 = load i32, i32* %5, align 4
  %74 = sub nsw i32 %73, 1
  %75 = sext i32 %74 to i64
  %76 = getelementptr inbounds [301 x i32], [301 x i32]* %2, i64 0, i64 %75
  %77 = load i32, i32* %76, align 4
  store i32 %77, i32* %6, align 4
  %78 = load i32, i32* %5, align 4
  %79 = sext i32 %78 to i64
  %80 = getelementptr inbounds [301 x i32], [301 x i32]* %2, i64 0, i64 %79
  %81 = load i32, i32* %80, align 4
  %82 = load i32, i32* %5, align 4
  %83 = sub nsw i32 %82, 1
  %84 = sext i32 %83 to i64
  %85 = getelementptr inbounds [301 x i32], [301 x i32]* %2, i64 0, i64 %84
  store i32 %81, i32* %85, align 4
  %86 = load i32, i32* %6, align 4
  %87 = load i32, i32* %5, align 4
  %88 = sext i32 %87 to i64
  %89 = getelementptr inbounds [301 x i32], [301 x i32]* %2, i64 0, i64 %88
  store i32 %86, i32* %89, align 4
  br label %90

90:                                               ; preds = %72, %61
  br label %91

91:                                               ; preds = %90
  %92 = load i32, i32* %5, align 4
  %93 = add nsw i32 %92, -1
  store i32 %93, i32* %5, align 4
  br label %58

94:                                               ; preds = %58
  %95 = load i32, i32* %4, align 4
  store i32 %95, i32* %5, align 4
  br label %96

96:                                               ; preds = %146, %94
  %97 = load i32, i32* %5, align 4
  %98 = icmp sge i32 %97, 3
  br i1 %98, label %99, label %149

99:                                               ; preds = %96
  %100 = load i32, i32* %5, align 4
  %101 = sext i32 %100 to i64
  %102 = getelementptr inbounds [301 x i32], [301 x i32]* %2, i64 0, i64 %101
  %103 = load i32, i32* %102, align 4
  %104 = load i32, i32* %5, align 4
  %105 = sub nsw i32 %104, 1
  %106 = sext i32 %105 to i64
  %107 = getelementptr inbounds [301 x i32], [301 x i32]* %2, i64 0, i64 %106
  %108 = load i32, i32* %107, align 4
  %109 = icmp uge i32 %103, %108
  br i1 %109, label %110, label %118

110:                                              ; preds = %99
  %111 = load i32, i32* %5, align 4
  %112 = sext i32 %111 to i64
  %113 = getelementptr inbounds [301 x i32], [301 x i32]* %2, i64 0, i64 %112
  %114 = load i32, i32* %113, align 4
  %115 = getelementptr inbounds [301 x i32], [301 x i32]* %2, i64 0, i64 1
  %116 = load i32, i32* %115, align 4
  %117 = icmp ne i32 %114, %116
  br i1 %117, label %127, label %118

118:                                              ; preds = %110, %99
  %119 = load i32, i32* %5, align 4
  %120 = sub nsw i32 %119, 1
  %121 = sext i32 %120 to i64
  %122 = getelementptr inbounds [301 x i32], [301 x i32]* %2, i64 0, i64 %121
  %123 = load i32, i32* %122, align 4
  %124 = getelementptr inbounds [301 x i32], [301 x i32]* %2, i64 0, i64 1
  %125 = load i32, i32* %124, align 4
  %126 = icmp eq i32 %123, %125
  br i1 %126, label %127, label %145

127:                                              ; preds = %118, %110
  %128 = load i32, i32* %5, align 4
  %129 = sub nsw i32 %128, 1
  %130 = sext i32 %129 to i64
  %131 = getelementptr inbounds [301 x i32], [301 x i32]* %2, i64 0, i64 %130
  %132 = load i32, i32* %131, align 4
  store i32 %132, i32* %6, align 4
  %133 = load i32, i32* %5, align 4
  %134 = sext i32 %133 to i64
  %135 = getelementptr inbounds [301 x i32], [301 x i32]* %2, i64 0, i64 %134
  %136 = load i32, i32* %135, align 4
  %137 = load i32, i32* %5, align 4
  %138 = sub nsw i32 %137, 1
  %139 = sext i32 %138 to i64
  %140 = getelementptr inbounds [301 x i32], [301 x i32]* %2, i64 0, i64 %139
  store i32 %136, i32* %140, align 4
  %141 = load i32, i32* %6, align 4
  %142 = load i32, i32* %5, align 4
  %143 = sext i32 %142 to i64
  %144 = getelementptr inbounds [301 x i32], [301 x i32]* %2, i64 0, i64 %143
  store i32 %141, i32* %144, align 4
  br label %145

145:                                              ; preds = %127, %118
  br label %146

146:                                              ; preds = %145
  %147 = load i32, i32* %5, align 4
  %148 = add nsw i32 %147, -1
  store i32 %148, i32* %5, align 4
  br label %96

149:                                              ; preds = %96
  %150 = getelementptr inbounds [301 x i32], [301 x i32]* %2, i64 0, i64 2
  %151 = load i32, i32* %150, align 8
  %152 = call i32 (i8*, ...) @printf(i8* getelementptr inbounds ([3 x i8], [3 x i8]* @.str, i64 0, i64 0), i32 %151)
  br label %153

153:                                              ; preds = %149, %53
  %154 = load i32, i32* %1, align 4
  ret i32 %154
}

declare dso_local i32 @__isoc99_scanf(i8*, ...) #1

declare dso_local i32 @printf(i8*, ...) #1


!llvm.module.flags = !{!0}
!llvm.ident = !{!1}

!0 = !{i32 1, !"wchar_size", i32 4}
!1 = !{!"clang version 10.0.0-4ubuntu1 "}
